; ModuleID = 'bench/zlib/original/zutil.ll'
source_filename = "bench/zlib/original/zutil.ll"
target datalayout = "e-m:e-p270:32:32-p271:32:32-p272:64:64-i64:64-i128:128-f80:128-n8:16:32:64-S128"
target triple = "x86_64-pc-linux-gnu"

@.str = private unnamed_addr constant [16 x i8] c"need dictionary\00", align 1
@.str.1 = private unnamed_addr constant [11 x i8] c"stream end\00", align 1
@.str.2 = private unnamed_addr constant [1 x i8] zeroinitializer, align 1
@.str.3 = private unnamed_addr constant [11 x i8] c"file error\00", align 1
@.str.4 = private unnamed_addr constant [13 x i8] c"stream error\00", align 1
@.str.5 = private unnamed_addr constant [11 x i8] c"data error\00", align 1
@.str.6 = private unnamed_addr constant [20 x i8] c"insufficient memory\00", align 1
@.str.7 = private unnamed_addr constant [13 x i8] c"buffer error\00", align 1
@.str.8 = private unnamed_addr constant [21 x i8] c"incompatible version\00", align 1
@z_errmsg = local_unnamed_addr constant [10 x ptr] [ptr @.str, ptr @.str.1, ptr @.str.2, ptr @.str.3, ptr @.str.4, ptr @.str.5, ptr @.str.6, ptr @.str.7, ptr @.str.8, ptr @.str.2], align 16
@.str.9 = private unnamed_addr constant [15 x i8] c"1.3.1.1-motley\00", align 1

; Function Attrs: mustprogress nofree norecurse nosync nounwind willreturn memory(none) uwtable
define noundef nonnull ptr @zlibVersion() local_unnamed_addr #0 {
  ret ptr @.str.9
}

; Function Attrs: mustprogress nofree norecurse nosync nounwind willreturn memory(none) uwtable
define noundef i64 @zlibCompileFlags() local_unnamed_addr #0 {
  ret i64 169
}

; Function Attrs: mustprogress nofree norecurse nosync nounwind willreturn memory(none) uwtable
define ptr @zError(i32 noundef %0) local_unnamed_addr #0 {
  %2 = add i32 %0, -3
  %or.cond = icmp ult i32 %2, -9
  %3 = sub nsw i32 2, %0
  %4 = select i1 %or.cond, i32 9, i32 %3
  %5 = sext i32 %4 to i64
  %6 = getelementptr inbounds [10 x ptr], ptr @z_errmsg, i64 0, i64 %5
  %7 = load ptr, ptr %6, align 8, !tbaa !3
  ret ptr %7
}

; Function Attrs: mustprogress nofree nounwind willreturn memory(inaccessiblemem: readwrite) uwtable
define hidden noalias noundef ptr @zcalloc(ptr noundef readnone captures(none) %0, i32 noundef %1, i32 noundef %2) local_unnamed_addr #1 {
  %4 = mul i32 %2, %1
  %5 = zext i32 %4 to i64
  %6 = tail call noalias ptr @malloc(i64 noundef %5) #5
  ret ptr %6
}

; Function Attrs: mustprogress nofree nounwind willreturn allockind("alloc,uninitialized") allocsize(0) memory(inaccessiblemem: readwrite)
declare noalias noundef ptr @malloc(i64 noundef) local_unnamed_addr #2

; Function Attrs: mustprogress nounwind willreturn memory(argmem: readwrite, inaccessiblemem: readwrite) uwtable
define hidden void @zcfree(ptr noundef readnone captures(none) %0, ptr noundef captures(none) %1) local_unnamed_addr #3 {
  tail call void @free(ptr noundef %1) #6
  ret void
}

; Function Attrs: mustprogress nounwind willreturn allockind("free") memory(argmem: readwrite, inaccessiblemem: readwrite)
declare void @free(ptr allocptr noundef captures(none)) local_unnamed_addr #4


!llvm.module.flags = !{!0, !1, !2}

!0 = !{i32 1, !"wchar_size", i32 4}
!1 = !{i32 8, !"PIC Level", i32 2}
!2 = !{i32 7, !"uwtable", i32 2}
!3 = !{!4, !4, i64 0}
!4 = !{!"p1 omnipotent char", !5, i64 0}
!5 = !{!"any pointer", !6, i64 0}
!6 = !{!"omnipotent char", !7, i64 0}
!7 = !{!"Simple C/C++ TBAA"}
